; Function Attrs: inlinehint mustprogress nounwind uwtable
define internal void @_ZN7testing12_GLOBAL__N_124ParameterizedTestFactoryIN11opencv_test12_GLOBAL__N_144Perf_Objdetect_QRCode_Multi_decodeMulti_TestEED0Ev(ptr noundef nonnull align 8 dereferenceable(72) initializes((0, 8)) %0) unnamed_addr #5 align 2 personality ptr @__gxx_personality_v0 {
  store ptr getelementptr inbounds nuw inrange(-16, 24) (i8, ptr @_ZTVN7testing12_GLOBAL__N_124ParameterizedTestFactoryIN11opencv_test12_GLOBAL__N_144Perf_Objdetect_QRCode_Multi_decodeMulti_TestEEE, i64 16), ptr %0, align 8, !tbaa !36
  %2 = getelementptr inbounds nuw i8, ptr %0, i64 8
  %3 = getelementptr inbounds nuw i8, ptr %0, i64 40
  %4 = load ptr, ptr %3, align 8, !tbaa !12
  %5 = getelementptr inbounds nuw i8, ptr %0, i64 56
  %6 = icmp eq ptr %4, %5
  br i1 %6, label %_ZNKSt7__cxx1112basic_stringIcSt11char_traitsIcESaIcEE11_M_is_localEv.exit.thread.i.i.i.i.i, label %_ZNKSt7__cxx1112basic_stringIcSt11char_traitsIcESaIcEE11_M_is_localEv.exit.i.i.i.i.i

_ZNKSt7__cxx1112basic_stringIcSt11char_traitsIcESaIcEE11_M_is_localEv.exit.thread.i.i.i.i.i: ; preds = %1
  %7 = getelementptr inbounds nuw i8, ptr %0, i64 48
  %8 = load i64, ptr %7, align 8, !tbaa !15
  %9 = icmp ult i64 %8, 16
  tail call void @llvm.assume(i1 %9)
  br label %_ZNSt10_Head_baseILm0ENSt7__cxx1112basic_stringIcSt11char_traitsIcESaIcEEELb0EED2Ev.exit.i.i

_ZNKSt7__cxx1112basic_stringIcSt11char_traitsIcESaIcEE11_M_is_localEv.exit.i.i.i.i.i: ; preds = %1
  tail call void @_ZdlPv(ptr noundef %4) #34
  br label %_ZNSt10_Head_baseILm0ENSt7__cxx1112basic_stringIcSt11char_traitsIcESaIcEEELb0EED2Ev.exit.i.i

_ZNSt10_Head_baseILm0ENSt7__cxx1112basic_stringIcSt11char_traitsIcESaIcEEELb0EED2Ev.exit.i.i: ; preds = %_ZNKSt7__cxx1112basic_stringIcSt11char_traitsIcESaIcEE11_M_is_localEv.exit.i.i.i.i.i, %_ZNKSt7__cxx1112basic_stringIcSt11char_traitsIcESaIcEE11_M_is_localEv.exit.thread.i.i.i.i.i
  %10 = load ptr, ptr %2, align 8, !tbaa !12
  %11 = getelementptr inbounds nuw i8, ptr %0, i64 24
  %12 = icmp eq ptr %10, %11
  br i1 %12, label %_ZNKSt7__cxx1112basic_stringIcSt11char_traitsIcESaIcEE11_M_is_localEv.exit.thread.i.i.i2.i.i, label %_ZNKSt7__cxx1112basic_stringIcSt11char_traitsIcESaIcEE11_M_is_localEv.exit.i.i.i1.i.i

_ZNKSt7__cxx1112basic_stringIcSt11char_traitsIcESaIcEE11_M_is_localEv.exit.thread.i.i.i2.i.i: ; preds = %_ZNSt10_Head_baseILm0ENSt7__cxx1112basic_stringIcSt11char_traitsIcESaIcEEELb0EED2Ev.exit.i.i
  %13 = getelementptr inbounds nuw i8, ptr %0, i64 16
  %14 = load i64, ptr %13, align 8, !tbaa !15
  %15 = icmp ult i64 %14, 16
  tail call void @llvm.assume(i1 %15)
  br label %_ZN7testing12_GLOBAL__N_124ParameterizedTestFactoryIN11opencv_test12_GLOBAL__N_144Perf_Objdetect_QRCode_Multi_decodeMulti_TestEED2Ev.exit

_ZNKSt7__cxx1112basic_stringIcSt11char_traitsIcESaIcEE11_M_is_localEv.exit.i.i.i1.i.i: ; preds = %_ZNSt10_Head_baseILm0ENSt7__cxx1112basic_stringIcSt11char_traitsIcESaIcEEELb0EED2Ev.exit.i.i
  tail call void @_ZdlPv(ptr noundef %10) #34
  br label %_ZN7testing12_GLOBAL__N_124ParameterizedTestFactoryIN11opencv_test12_GLOBAL__N_144Perf_Objdetect_QRCode_Multi_decodeMulti_TestEED2Ev.exit

_ZN7testing12_GLOBAL__N_124ParameterizedTestFactoryIN11opencv_test12_GLOBAL__N_144Perf_Objdetect_QRCode_Multi_decodeMulti_TestEED2Ev.exit: ; preds = %_ZNKSt7__cxx1112basic_stringIcSt11char_traitsIcESaIcEE11_M_is_localEv.exit.thread.i.i.i2.i.i, %_ZNKSt7__cxx1112basic_stringIcSt11char_traitsIcESaIcEE11_M_is_localEv.exit.i.i.i1.i.i
  tail call void @_ZdlPv(ptr noundef nonnull %0) #34
  ret void
}